target datalayout = "e-m:e-p270:32:32-p271:32:32-p272:64:64-i64:64-i128:128-f80:128-n8:16:32:64-S128"
target triple = "x86_64-pc-linux-gnu"

%"struct.Imf_3_4::istream_holder" = type { %"class.std::mutex", ptr }
%"class.std::mutex" = type { %"class.std::__mutex_base" }
%"class.std::__mutex_base" = type { %union.pthread_mutex_t }
%union.pthread_mutex_t = type { %struct.__pthread_mutex_s }
%struct.__pthread_mutex_s = type { i32, i32, i32, i32, i32, i16, i16, %struct.__pthread_internal_list }
%struct.__pthread_internal_list = type { ptr, ptr }

@_ZTISt9exception = external constant ptr
@.str = private unnamed_addr constant [52 x i8] c"Unable to seek to desired offset %lu: Unknown error\00", align 1
@.str.1 = private unnamed_addr constant [41 x i8] c"Unable to seek to desired offset %lu: %s\00", align 1

; Function Attrs: mustprogress uwtable
define internal noundef i64 @_ZN7Imf_3_4L23istream_threadsafe_readEPK19_priv_exr_context_tPvS3_mmPFiS2_iPKczE(ptr noundef %0, ptr noundef %1, ptr noundef %2, i64 noundef %3, i64 noundef %4, ptr noundef %5) #0 personality ptr @__gxx_personality_v0 {
  %7 = alloca ptr, align 8
  %8 = alloca ptr, align 8
  %9 = alloca ptr, align 8
  %10 = alloca i64, align 8
  %11 = alloca i64, align 8
  %12 = alloca ptr, align 8
  %13 = alloca ptr, align 8
  %14 = alloca ptr, align 8
  %15 = alloca i64, align 8
  %16 = alloca ptr, align 8
  %17 = alloca i32, align 4
  %18 = alloca ptr, align 8
  store ptr %0, ptr %7, align 8, !tbaa !31
  store ptr %1, ptr %8, align 8, !tbaa !33
  store ptr %2, ptr %9, align 8, !tbaa !33
  store i64 %3, ptr %10, align 8, !tbaa !34
  store i64 %4, ptr %11, align 8, !tbaa !34
  store ptr %5, ptr %12, align 8, !tbaa !33
  call void @llvm.lifetime.start.p0(i64 8, ptr %13) #15
  %19 = load ptr, ptr %8, align 8, !tbaa !33
  store ptr %19, ptr %13, align 8, !tbaa !25
  call void @llvm.lifetime.start.p0(i64 8, ptr %14) #15
  %20 = load ptr, ptr %13, align 8, !tbaa !25
  %21 = getelementptr inbounds nuw %"struct.Imf_3_4::istream_holder", ptr %20, i32 0, i32 1
  %22 = load ptr, ptr %21, align 8, !tbaa !27
  store ptr %22, ptr %14, align 8, !tbaa !8
  call void @llvm.lifetime.start.p0(i64 8, ptr %15) #15
  store i64 -1, ptr %15, align 8, !tbaa !34
  %23 = load ptr, ptr %14, align 8, !tbaa !8
  %24 = load ptr, ptr %9, align 8, !tbaa !33
  %25 = load i64, ptr %10, align 8, !tbaa !34
  %26 = load i64, ptr %11, align 8, !tbaa !34
  %27 = load ptr, ptr %23, align 8, !tbaa !17
  %28 = getelementptr inbounds ptr, ptr %27, i64 10
  %29 = load ptr, ptr %28, align 8
  %30 = invoke noundef i64 %29(ptr noundef nonnull align 8 dereferenceable(40) %23, ptr noundef %24, i64 noundef %25, i64 noundef %26)
          to label %31 unwind label %32

31:                                               ; preds = %6
  store i64 %30, ptr %15, align 8, !tbaa !34
  br label %53

32:                                               ; preds = %6
  %33 = landingpad { ptr, i32 }
          catch ptr @_ZTISt9exception
          catch ptr null
  %34 = extractvalue { ptr, i32 } %33, 0
  store ptr %34, ptr %16, align 8
  %35 = extractvalue { ptr, i32 } %33, 1
  store i32 %35, ptr %17, align 4
  br label %36

36:                                               ; preds = %32
  %37 = load i32, ptr %17, align 4
  %38 = call i32 @llvm.eh.typeid.for.p0(ptr @_ZTISt9exception) #15
  %39 = icmp eq i32 %37, %38
  br i1 %39, label %40, label %55

40:                                               ; preds = %36
  call void @llvm.lifetime.start.p0(i64 8, ptr %18) #15
  %41 = load ptr, ptr %16, align 8
  %42 = call ptr @__cxa_begin_catch(ptr %41) #15
  store ptr %42, ptr %18, align 8
  %43 = load ptr, ptr %12, align 8, !tbaa !33
  %44 = load ptr, ptr %7, align 8, !tbaa !31
  %45 = load i64, ptr %11, align 8, !tbaa !34
  %46 = load ptr, ptr %18, align 8, !tbaa !35
  %47 = load ptr, ptr %46, align 8, !tbaa !17
  %48 = getelementptr inbounds ptr, ptr %47, i64 2
  %49 = load ptr, ptr %48, align 8
  %50 = call noundef ptr %49(ptr noundef nonnull align 8 dereferenceable(8) %46) #15
  %51 = invoke noundef i32 (ptr, i32, ptr, ...) %43(ptr noundef %44, i32 noundef 10, ptr noundef @.str.1, i64 noundef %45, ptr noundef %50)
          to label %52 unwind label %68

52:                                               ; preds = %40
  store i64 -1, ptr %15, align 8, !tbaa !34
  call void @__cxa_end_catch()
  call void @llvm.lifetime.end.p0(i64 8, ptr %18) #15
  br label %53

53:                                               ; preds = %52, %62, %31
  %54 = load i64, ptr %15, align 8, !tbaa !34
  call void @llvm.lifetime.end.p0(i64 8, ptr %15) #15
  call void @llvm.lifetime.end.p0(i64 8, ptr %14) #15
  call void @llvm.lifetime.end.p0(i64 8, ptr %13) #15
  ret i64 %54

55:                                               ; preds = %36
  %56 = load ptr, ptr %16, align 8
  %57 = call ptr @__cxa_begin_catch(ptr %56) #15
  %58 = load ptr, ptr %12, align 8, !tbaa !33
  %59 = load ptr, ptr %7, align 8, !tbaa !31
  %60 = load i64, ptr %11, align 8, !tbaa !34
  %61 = invoke noundef i32 (ptr, i32, ptr, ...) %58(ptr noundef %59, i32 noundef 10, ptr noundef @.str, i64 noundef %60)
          to label %62 unwind label %63

62:                                               ; preds = %55
  store i64 -1, ptr %15, align 8, !tbaa !34
  call void @__cxa_end_catch()
  br label %53

63:                                               ; preds = %55
  %64 = landingpad { ptr, i32 }
          cleanup
  %65 = extractvalue { ptr, i32 } %64, 0
  store ptr %65, ptr %16, align 8
  %66 = extractvalue { ptr, i32 } %64, 1
  store i32 %66, ptr %17, align 4
  invoke void @__cxa_end_catch()
          to label %67 unwind label %79

67:                                               ; preds = %63
  br label %73

68:                                               ; preds = %40
  %69 = landingpad { ptr, i32 }
          cleanup
  %70 = extractvalue { ptr, i32 } %69, 0
  store ptr %70, ptr %16, align 8
  %71 = extractvalue { ptr, i32 } %69, 1
  store i32 %71, ptr %17, align 4
  invoke void @__cxa_end_catch()
          to label %72 unwind label %79

72:                                               ; preds = %68
  call void @llvm.lifetime.end.p0(i64 8, ptr %18) #15
  br label %73

73:                                               ; preds = %72, %67
  call void @llvm.lifetime.end.p0(i64 8, ptr %15) #15
  call void @llvm.lifetime.end.p0(i64 8, ptr %14) #15
  call void @llvm.lifetime.end.p0(i64 8, ptr %13) #15
  br label %74

74:                                               ; preds = %73
  %75 = load ptr, ptr %16, align 8
  %76 = load i32, ptr %17, align 4
  %77 = insertvalue { ptr, i32 } poison, ptr %75, 0
  %78 = insertvalue { ptr, i32 } %77, i32 %76, 1
  resume { ptr, i32 } %78

79:                                               ; preds = %68, %63
  %80 = landingpad { ptr, i32 }
          catch ptr null
  %81 = extractvalue { ptr, i32 } %80, 0
  call void @__clang_call_terminate(ptr %81) #16
  unreachable
}