; Function Attrs: mustprogress uwtable
define internal noundef i64 @_ZN7Imf_3_4L23istream_threadsafe_readEPK19_priv_exr_context_tPvS3_mmPFiS2_iPKczE(ptr noundef %0, ptr noundef readonly captures(none) %1, ptr noundef %2, i64 noundef %3, i64 noundef %4, ptr noundef readonly captures(none) %5) #0 personality ptr @__gxx_personality_v0 {
  %7 = getelementptr inbounds nuw i8, ptr %1, i64 40
  %8 = load ptr, ptr %7, align 8, !tbaa !3
  %9 = load ptr, ptr %8, align 8, !tbaa !18
  %10 = getelementptr inbounds nuw i8, ptr %9, i64 80
  %11 = load ptr, ptr %10, align 8
  %12 = invoke noundef i64 %11(ptr noundef nonnull align 8 dereferenceable(40) %8, ptr noundef %2, i64 noundef %3, i64 noundef %4)
          to label %26 unwind label %13

13:                                               ; preds = %6
  %14 = landingpad { ptr, i32 }
          catch ptr @_ZTISt9exception
          catch ptr null
  %15 = extractvalue { ptr, i32 } %14, 0
  %16 = extractvalue { ptr, i32 } %14, 1
  %17 = tail call i32 @llvm.eh.typeid.for.p0(ptr nonnull @_ZTISt9exception) #12
  %18 = icmp eq i32 %16, %17
  %19 = tail call ptr @__cxa_begin_catch(ptr %15) #12
  br i1 %18, label %20, label %27

20:                                               ; preds = %13
  %21 = load ptr, ptr %19, align 8, !tbaa !18
  %22 = getelementptr inbounds nuw i8, ptr %21, i64 16
  %23 = load ptr, ptr %22, align 8
  %24 = tail call noundef ptr %23(ptr noundef nonnull align 8 dereferenceable(8) %19) #12
  %25 = invoke noundef i32 (ptr, i32, ptr, ...) %5(ptr noundef %0, i32 noundef 10, ptr noundef nonnull @.str.1, i64 noundef %4, ptr noundef %24)
          to label %.sink.split unwind label %31

.sink.split:                                      ; preds = %20, %27
  tail call void @__cxa_end_catch()
  br label %26

26:                                               ; preds = %.sink.split, %6
  %.0 = phi i64 [ %12, %6 ], [ -1, %.sink.split ]
  ret i64 %.0

27:                                               ; preds = %13
  %28 = invoke noundef i32 (ptr, i32, ptr, ...) %5(ptr noundef %0, i32 noundef 10, ptr noundef nonnull @.str, i64 noundef %4)
          to label %.sink.split unwind label %29

29:                                               ; preds = %27
  %30 = landingpad { ptr, i32 }
          cleanup
  invoke void @__cxa_end_catch()
          to label %33 unwind label %34

31:                                               ; preds = %20
  %32 = landingpad { ptr, i32 }
          cleanup
  invoke void @__cxa_end_catch()
          to label %33 unwind label %34

33:                                               ; preds = %31, %29
  %.pn = phi { ptr, i32 } [ %30, %29 ], [ %32, %31 ]
  resume { ptr, i32 } %.pn

34:                                               ; preds = %31, %29
  %35 = landingpad { ptr, i32 }
          catch ptr null
  %36 = extractvalue { ptr, i32 } %35, 0
  tail call void @__clang_call_terminate(ptr %36) #13
  unreachable
}